target datalayout = "e-m:e-p270:32:32-p271:32:32-p272:64:64-i64:64-i128:128-f80:128-n8:16:32:64-S128"
target triple = "x86_64-pc-linux-gnu"

@.str.2 = private unnamed_addr constant [97 x i8] c"generated/home/dtcxzyw/WorkSpace/Projects/compilers/llvm-opt-benchmark/bench/hdf5/hdf5/src/H5T.c\00", align 1
@H5E_DATATYPE_g = external global i64, align 8
@__func__.H5T__upgrade_version = private unnamed_addr constant [21 x i8] c"H5T__upgrade_version\00", align 1
@H5E_BADITER_g = external global i64, align 8
@.str.332 = private unnamed_addr constant [54 x i8] c"iteration to upgrade datatype encoding version failed\00", align 1

; Function Attrs: nounwind uwtable
define i32 @H5T__upgrade_version(ptr noundef %0, i32 noundef %1) #0 {
  %3 = alloca ptr, align 8
  %4 = alloca i32, align 4
  %5 = alloca i32, align 4
  %6 = alloca i8, align 1
  store ptr %0, ptr %3, align 8
  store i32 %1, ptr %4, align 4
  store i32 0, ptr %5, align 4
  store i8 0, ptr %6, align 1
  %7 = load ptr, ptr %3, align 8
  %8 = call i32 @H5T__visit(ptr noundef %7, i32 noundef 6, ptr noundef @H5T__upgrade_version_cb, ptr noundef %4)
  %9 = icmp slt i32 %8, 0
  br i1 %9, label %10, label %25

10:                                               ; preds = %2
  br label %11

11:                                               ; preds = %10
  br label %12

12:                                               ; preds = %11
  br label %13

13:                                               ; preds = %12
  %14 = load i64, ptr @H5E_DATATYPE_g, align 8
  %15 = load i64, ptr @H5E_BADITER_g, align 8
  %16 = call i32 (ptr, ptr, i32, i64, i64, ptr, ...) @H5E_printf_stack(ptr noundef @.str.2, ptr noundef @__func__.H5T__upgrade_version, i32 noundef 6573, i64 noundef %14, i64 noundef %15, ptr noundef @.str.332)
  br label %17

17:                                               ; preds = %13
  store i8 1, ptr %6, align 1
  %18 = load i8, ptr %6, align 1
  %19 = trunc i8 %18 to i1
  %20 = zext i1 %19 to i8
  store i8 %20, ptr %6, align 1
  br label %21

21:                                               ; preds = %17
  br label %22

22:                                               ; preds = %21
  store i32 -1, ptr %5, align 4
  br label %26

23:                                               ; No predecessors!
  br label %24

24:                                               ; preds = %23
  br label %25

25:                                               ; preds = %24, %2
  br label %26

26:                                               ; preds = %25, %22
  %27 = load i32, ptr %5, align 4
  ret i32 %27
}