; Function Attrs: nounwind uwtable
define range(i32 -1, 1) i32 @H5T__upgrade_version(ptr noundef %0, i32 noundef %1) local_unnamed_addr #0 {
  %3 = alloca i32, align 4
  store i32 %1, ptr %3, align 4
  %4 = call i32 @H5T__visit(ptr noundef %0, i32 noundef 6, ptr noundef nonnull @H5T__upgrade_version_cb, ptr noundef nonnull %3) #17
  %5 = icmp slt i32 %4, 0
  br i1 %5, label %6, label %10

6:                                                ; preds = %2
  %7 = load i64, ptr @H5E_DATATYPE_g, align 8
  %8 = load i64, ptr @H5E_BADITER_g, align 8
  %9 = call i32 (ptr, ptr, i32, i64, i64, ptr, ...) @H5E_printf_stack(ptr noundef nonnull @.str.2, ptr noundef nonnull @__func__.H5T__upgrade_version, i32 noundef 6573, i64 noundef %7, i64 noundef %8, ptr noundef nonnull @.str.332) #17
  br label %10

10:                                               ; preds = %2, %6
  %.0 = phi i32 [ -1, %6 ], [ 0, %2 ]
  ret i32 %.0
}